target datalayout = "e-m:e-p270:32:32-p271:32:32-p272:64:64-i64:64-i128:128-f80:128-n8:16:32:64-S128"
target triple = "x86_64-unknown-linux-gnu"

%"class.facebook::velox::HashStringAllocator::Header" = type { i32 }
%"class.facebook::velox::HashStringAllocator" = type { %"class.facebook::velox::StreamArena", [3058 x %"class.facebook::velox::CompactDoubleList"], [48 x i64], i64, i64, i64, %"struct.facebook::velox::HashStringAllocator::Position", ptr, %"class.facebook::velox::memory::AllocationPool", %"class.folly::F14FastMap", i64 }
%"class.facebook::velox::StreamArena" = type { ptr, ptr, i64, %"class.std::vector", %"class.facebook::velox::memory::Allocation", i32, i32, %"class.std::vector.8", i64, %"class.std::vector.13" }
%"class.std::vector" = type { %"struct.std::_Vector_base" }
%"struct.std::_Vector_base" = type { %"struct.std::_Vector_base<std::unique_ptr<facebook::velox::memory::Allocation>, std::allocator<std::unique_ptr<facebook::velox::memory::Allocation>>>::_Vector_impl" }
%"struct.std::_Vector_base<std::unique_ptr<facebook::velox::memory::Allocation>, std::allocator<std::unique_ptr<facebook::velox::memory::Allocation>>>::_Vector_impl" = type { %"struct.std::_Vector_base<std::unique_ptr<facebook::velox::memory::Allocation>, std::allocator<std::unique_ptr<facebook::velox::memory::Allocation>>>::_Vector_impl_data" }
%"struct.std::_Vector_base<std::unique_ptr<facebook::velox::memory::Allocation>, std::allocator<std::unique_ptr<facebook::velox::memory::Allocation>>>::_Vector_impl_data" = type { ptr, ptr, ptr }
%"class.facebook::velox::memory::Allocation" = type <{ ptr, %"class.std::vector.3", i32, [4 x i8] }>
%"class.std::vector.3" = type { %"struct.std::_Vector_base.4" }
%"struct.std::_Vector_base.4" = type { %"struct.std::_Vector_base<facebook::velox::memory::Allocation::PageRun, std::allocator<facebook::velox::memory::Allocation::PageRun>>::_Vector_impl" }
%"struct.std::_Vector_base<facebook::velox::memory::Allocation::PageRun, std::allocator<facebook::velox::memory::Allocation::PageRun>>::_Vector_impl" = type { %"struct.std::_Vector_base<facebook::velox::memory::Allocation::PageRun, std::allocator<facebook::velox::memory::Allocation::PageRun>>::_Vector_impl_data" }
%"struct.std::_Vector_base<facebook::velox::memory::Allocation::PageRun, std::allocator<facebook::velox::memory::Allocation::PageRun>>::_Vector_impl_data" = type { ptr, ptr, ptr }
%"class.std::vector.8" = type { %"struct.std::_Vector_base.9" }
%"struct.std::_Vector_base.9" = type { %"struct.std::_Vector_base<facebook::velox::memory::ContiguousAllocation, std::allocator<facebook::velox::memory::ContiguousAllocation>>::_Vector_impl" }
%"struct.std::_Vector_base<facebook::velox::memory::ContiguousAllocation, std::allocator<facebook::velox::memory::ContiguousAllocation>>::_Vector_impl" = type { %"struct.std::_Vector_base<facebook::velox::memory::ContiguousAllocation, std::allocator<facebook::velox::memory::ContiguousAllocation>>::_Vector_impl_data" }
%"struct.std::_Vector_base<facebook::velox::memory::ContiguousAllocation, std::allocator<facebook::velox::memory::ContiguousAllocation>>::_Vector_impl_data" = type { ptr, ptr, ptr }
%"class.std::vector.13" = type { %"struct.std::_Vector_base.14" }
%"struct.std::_Vector_base.14" = type { %"struct.std::_Vector_base<std::__cxx11::basic_string<char>, std::allocator<std::__cxx11::basic_string<char>>>::_Vector_impl" }
%"struct.std::_Vector_base<std::__cxx11::basic_string<char>, std::allocator<std::__cxx11::basic_string<char>>>::_Vector_impl" = type { %"struct.std::_Vector_base<std::__cxx11::basic_string<char>, std::allocator<std::__cxx11::basic_string<char>>>::_Vector_impl_data" }
%"struct.std::_Vector_base<std::__cxx11::basic_string<char>, std::allocator<std::__cxx11::basic_string<char>>>::_Vector_impl_data" = type { ptr, ptr, ptr }
%"class.facebook::velox::CompactDoubleList" = type { i32, i32, i16, i16 }
%"struct.facebook::velox::HashStringAllocator::Position" = type { ptr, ptr }
%"class.facebook::velox::memory::AllocationPool" = type { ptr, %"class.std::vector.18", %"class.std::vector.8", ptr, i64, i64, i64, i64 }
%"class.std::vector.18" = type { %"struct.std::_Vector_base.19" }
%"struct.std::_Vector_base.19" = type { %"struct.std::_Vector_base<facebook::velox::memory::Allocation, std::allocator<facebook::velox::memory::Allocation>>::_Vector_impl" }
%"struct.std::_Vector_base<facebook::velox::memory::Allocation, std::allocator<facebook::velox::memory::Allocation>>::_Vector_impl" = type { %"struct.std::_Vector_base<facebook::velox::memory::Allocation, std::allocator<facebook::velox::memory::Allocation>>::_Vector_impl_data" }
%"struct.std::_Vector_base<facebook::velox::memory::Allocation, std::allocator<facebook::velox::memory::Allocation>>::_Vector_impl_data" = type { ptr, ptr, ptr }
%"class.folly::F14FastMap" = type { %"class.folly::F14ValueMap" }
%"class.folly::F14ValueMap" = type { %"class.folly::f14::detail::F14BasicMap" }
%"class.folly::f14::detail::F14BasicMap" = type { %"class.folly::f14::detail::F14Table" }
%"class.folly::f14::detail::F14Table" = type { ptr, i64, %"struct.folly::f14::detail::SizeAndPackedBegin" }
%"struct.folly::f14::detail::SizeAndPackedBegin" = type { i64, %"class.folly::f14::detail::PackedChunkItemPtr" }
%"class.folly::f14::detail::PackedChunkItemPtr" = type { i64 }
%"class.facebook::velox::memory::ContiguousAllocation" = type { ptr, ptr, i64, i64 }
%"class.__gnu_cxx::__normal_iterator.60" = type { ptr }

; Function Attrs: mustprogress nounwind uwtable
define linkonce_odr noundef nonnull align 8 dereferenceable(8) ptr @_ZNK9__gnu_cxx17__normal_iteratorIPKN8facebook5velox6memory20ContiguousAllocationESt6vectorIS4_SaIS4_EEE4baseEv(ptr noundef nonnull align 8 dereferenceable(8) %this) #2 comdat align 2 {
entry:
  %this.addr = alloca ptr, align 8
  store ptr %this, ptr %this.addr, align 8
  %this1 = load ptr, ptr %this.addr, align 8
  %_M_current = getelementptr inbounds %"class.__gnu_cxx::__normal_iterator.60", ptr %this1, i32 0, i32 0
  ret ptr %_M_current
}

; Function Attrs: mustprogress nounwind uwtable
define linkonce_odr void @_ZN9__gnu_cxx17__normal_iteratorIPKN8facebook5velox6memory20ContiguousAllocationESt6vectorIS4_SaIS4_EEEC2ERKS6_(ptr noundef nonnull align 8 dereferenceable(8) %this, ptr noundef nonnull align 8 dereferenceable(8) %__i) unnamed_addr #2 comdat align 2 {
entry:
  %this.addr = alloca ptr, align 8
  %__i.addr = alloca ptr, align 8
  store ptr %this, ptr %this.addr, align 8
  store ptr %__i, ptr %__i.addr, align 8
  %this1 = load ptr, ptr %this.addr, align 8
  %_M_current = getelementptr inbounds %"class.__gnu_cxx::__normal_iterator.60", ptr %this1, i32 0, i32 0
  %0 = load ptr, ptr %__i.addr, align 8
  %1 = load ptr, ptr %0, align 8
  store ptr %1, ptr %_M_current, align 8
  ret void
}

; Function Attrs: mustprogress nounwind uwtable
define linkonce_odr noundef nonnull align 8 dereferenceable(32) ptr @_ZNK9__gnu_cxx17__normal_iteratorIPKN8facebook5velox6memory20ContiguousAllocationESt6vectorIS4_SaIS4_EEEdeEv(ptr noundef nonnull align 8 dereferenceable(8) %this) #2 comdat align 2 {
entry:
  %this.addr = alloca ptr, align 8
  store ptr %this, ptr %this.addr, align 8
  %this1 = load ptr, ptr %this.addr, align 8
  %_M_current = getelementptr inbounds %"class.__gnu_cxx::__normal_iterator.60", ptr %this1, i32 0, i32 0
  %0 = load ptr, ptr %_M_current, align 8
  ret ptr %0
}

; Function Attrs: mustprogress nounwind uwtable
define linkonce_odr ptr @_ZNK9__gnu_cxx17__normal_iteratorIPKN8facebook5velox6memory20ContiguousAllocationESt6vectorIS4_SaIS4_EEEmiEl(ptr noundef nonnull align 8 dereferenceable(8) %this, i64 noundef %__n) #2 comdat align 2 {
entry:
  %retval = alloca %"class.__gnu_cxx::__normal_iterator.60", align 8
  %this.addr = alloca ptr, align 8
  %__n.addr = alloca i64, align 8
  %ref.tmp = alloca ptr, align 8
  store ptr %this, ptr %this.addr, align 8
  store i64 %__n, ptr %__n.addr, align 8
  %this1 = load ptr, ptr %this.addr, align 8
  %_M_current = getelementptr inbounds %"class.__gnu_cxx::__normal_iterator.60", ptr %this1, i32 0, i32 0
  %0 = load ptr, ptr %_M_current, align 8
  %1 = load i64, ptr %__n.addr, align 8
  %idx.neg = sub i64 0, %1
  %add.ptr = getelementptr inbounds %"class.facebook::velox::memory::ContiguousAllocation", ptr %0, i64 %idx.neg
  store ptr %add.ptr, ptr %ref.tmp, align 8
  call void @_ZN9__gnu_cxx17__normal_iteratorIPKN8facebook5velox6memory20ContiguousAllocationESt6vectorIS4_SaIS4_EEEC2ERKS6_(ptr noundef nonnull align 8 dereferenceable(8) %retval, ptr noundef nonnull align 8 dereferenceable(8) %ref.tmp) #21
  %coerce.dive = getelementptr inbounds %"class.__gnu_cxx::__normal_iterator.60", ptr %retval, i32 0, i32 0
  %2 = load ptr, ptr %coerce.dive, align 8
  ret ptr %2
}

; Function Attrs: mustprogress nounwind uwtable
define linkonce_odr noundef zeroext i1 @_ZN9__gnu_cxxeqIPKN8facebook5velox6memory20ContiguousAllocationESt6vectorIS4_SaIS4_EEEEbRKNS_17__normal_iteratorIT_T0_EESF_(ptr noundef nonnull align 8 dereferenceable(8) %__lhs, ptr noundef nonnull align 8 dereferenceable(8) %__rhs) #2 comdat {
entry:
  %__lhs.addr = alloca ptr, align 8
  %__rhs.addr = alloca ptr, align 8
  store ptr %__lhs, ptr %__lhs.addr, align 8
  store ptr %__rhs, ptr %__rhs.addr, align 8
  %0 = load ptr, ptr %__lhs.addr, align 8
  %call = call noundef nonnull align 8 dereferenceable(8) ptr @_ZNK9__gnu_cxx17__normal_iteratorIPKN8facebook5velox6memory20ContiguousAllocationESt6vectorIS4_SaIS4_EEE4baseEv(ptr noundef nonnull align 8 dereferenceable(8) %0) #21
  %1 = load ptr, ptr %call, align 8
  %2 = load ptr, ptr %__rhs.addr, align 8
  %call1 = call noundef nonnull align 8 dereferenceable(8) ptr @_ZNK9__gnu_cxx17__normal_iteratorIPKN8facebook5velox6memory20ContiguousAllocationESt6vectorIS4_SaIS4_EEE4baseEv(ptr noundef nonnull align 8 dereferenceable(8) %2) #21
  %3 = load ptr, ptr %call1, align 8
  %cmp = icmp eq ptr %1, %3
  ret i1 %cmp
}

; Function Attrs: mustprogress nounwind uwtable
define linkonce_odr ptr @_ZNKSt6vectorIN8facebook5velox6memory20ContiguousAllocationESaIS3_EE3endEv(ptr noundef nonnull align 8 dereferenceable(24) %this) #2 comdat align 2 {
entry:
  %retval = alloca %"class.__gnu_cxx::__normal_iterator.60", align 8
  %this.addr = alloca ptr, align 8
  store ptr %this, ptr %this.addr, align 8
  %this1 = load ptr, ptr %this.addr, align 8
  %_M_impl = getelementptr inbounds %"struct.std::_Vector_base.9", ptr %this1, i32 0, i32 0
  %_M_finish = getelementptr inbounds %"struct.std::_Vector_base<facebook::velox::memory::ContiguousAllocation, std::allocator<facebook::velox::memory::ContiguousAllocation>>::_Vector_impl_data", ptr %_M_impl, i32 0, i32 1
  call void @_ZN9__gnu_cxx17__normal_iteratorIPKN8facebook5velox6memory20ContiguousAllocationESt6vectorIS4_SaIS4_EEEC2ERKS6_(ptr noundef nonnull align 8 dereferenceable(8) %retval, ptr noundef nonnull align 8 dereferenceable(8) %_M_finish) #21
  %coerce.dive = getelementptr inbounds %"class.__gnu_cxx::__normal_iterator.60", ptr %retval, i32 0, i32 0
  %0 = load ptr, ptr %coerce.dive, align 8
  ret ptr %0
}

; Function Attrs: mustprogress nounwind uwtable
define linkonce_odr ptr @_ZNKSt6vectorIN8facebook5velox6memory20ContiguousAllocationESaIS3_EE5beginEv(ptr noundef nonnull align 8 dereferenceable(24) %this) #2 comdat align 2 {
entry:
  %retval = alloca %"class.__gnu_cxx::__normal_iterator.60", align 8
  %this.addr = alloca ptr, align 8
  store ptr %this, ptr %this.addr, align 8
  %this1 = load ptr, ptr %this.addr, align 8
  %_M_impl = getelementptr inbounds %"struct.std::_Vector_base.9", ptr %this1, i32 0, i32 0
  %_M_start = getelementptr inbounds %"struct.std::_Vector_base<facebook::velox::memory::ContiguousAllocation, std::allocator<facebook::velox::memory::ContiguousAllocation>>::_Vector_impl_data", ptr %_M_impl, i32 0, i32 0
  call void @_ZN9__gnu_cxx17__normal_iteratorIPKN8facebook5velox6memory20ContiguousAllocationESt6vectorIS4_SaIS4_EEEC2ERKS6_(ptr noundef nonnull align 8 dereferenceable(8) %retval, ptr noundef nonnull align 8 dereferenceable(8) %_M_start) #21
  %coerce.dive = getelementptr inbounds %"class.__gnu_cxx::__normal_iterator.60", ptr %retval, i32 0, i32 0
  %0 = load ptr, ptr %coerce.dive, align 8
  ret ptr %0
}

; Function Attrs: mustprogress nounwind uwtable
define linkonce_odr noundef i64 @_ZNK8facebook5velox6memory20ContiguousAllocation4sizeEv(ptr noundef nonnull align 8 dereferenceable(32) %this) #2 comdat align 2 {
entry:
  %this.addr = alloca ptr, align 8
  store ptr %this, ptr %this.addr, align 8
  %this1 = load ptr, ptr %this.addr, align 8
  %size_ = getelementptr inbounds %"class.facebook::velox::memory::ContiguousAllocation", ptr %this1, i32 0, i32 2
  %0 = load i64, ptr %size_, align 8
  ret i64 %0
}

; Function Attrs: mustprogress nounwind uwtable
define linkonce_odr noundef nonnull align 8 dereferenceable(32) ptr @_ZNKSt6vectorIN8facebook5velox6memory20ContiguousAllocationESaIS3_EE4backEv(ptr noundef nonnull align 8 dereferenceable(24) %this) #2 comdat align 2 {
entry:
  %this.addr = alloca ptr, align 8
  %ref.tmp = alloca %"class.__gnu_cxx::__normal_iterator.60", align 8
  %ref.tmp2 = alloca %"class.__gnu_cxx::__normal_iterator.60", align 8
  store ptr %this, ptr %this.addr, align 8
  %this1 = load ptr, ptr %this.addr, align 8
  %call = call ptr @_ZNKSt6vectorIN8facebook5velox6memory20ContiguousAllocationESaIS3_EE3endEv(ptr noundef nonnull align 8 dereferenceable(24) %this1) #21
  %coerce.dive = getelementptr inbounds %"class.__gnu_cxx::__normal_iterator.60", ptr %ref.tmp2, i32 0, i32 0
  store ptr %call, ptr %coerce.dive, align 8
  %call3 = call ptr @_ZNK9__gnu_cxx17__normal_iteratorIPKN8facebook5velox6memory20ContiguousAllocationESt6vectorIS4_SaIS4_EEEmiEl(ptr noundef nonnull align 8 dereferenceable(8) %ref.tmp2, i64 noundef 1) #21
  %coerce.dive4 = getelementptr inbounds %"class.__gnu_cxx::__normal_iterator.60", ptr %ref.tmp, i32 0, i32 0
  store ptr %call3, ptr %coerce.dive4, align 8
  %call5 = call noundef nonnull align 8 dereferenceable(32) ptr @_ZNK9__gnu_cxx17__normal_iteratorIPKN8facebook5velox6memory20ContiguousAllocationESt6vectorIS4_SaIS4_EEEdeEv(ptr noundef nonnull align 8 dereferenceable(8) %ref.tmp) #21
  ret ptr %call5
}

; Function Attrs: mustprogress nounwind uwtable
define linkonce_odr noundef i64 @_ZNK8facebook5velox6memory14AllocationPool20freeAddressableBytesEv(ptr noundef nonnull align 8 dereferenceable(96) %this) #2 comdat align 2 {
entry:
  %this.addr = alloca ptr, align 8
  store ptr %this, ptr %this.addr, align 8
  %this1 = load ptr, ptr %this.addr, align 8
  %bytesInRun_ = getelementptr inbounds %"class.facebook::velox::memory::AllocationPool", ptr %this1, i32 0, i32 4
  %0 = load i64, ptr %bytesInRun_, align 8
  %currentOffset_ = getelementptr inbounds %"class.facebook::velox::memory::AllocationPool", ptr %this1, i32 0, i32 5
  %1 = load i64, ptr %currentOffset_, align 8
  %sub = sub nsw i64 %0, %1
  ret i64 %sub
}

; Function Attrs: mustprogress nounwind uwtable
define linkonce_odr noundef zeroext i1 @_ZNKSt6vectorIN8facebook5velox6memory20ContiguousAllocationESaIS3_EE5emptyEv(ptr noundef nonnull align 8 dereferenceable(24) %this) #2 comdat align 2 {
entry:
  %this.addr = alloca ptr, align 8
  %ref.tmp = alloca %"class.__gnu_cxx::__normal_iterator.60", align 8
  %ref.tmp2 = alloca %"class.__gnu_cxx::__normal_iterator.60", align 8
  store ptr %this, ptr %this.addr, align 8
  %this1 = load ptr, ptr %this.addr, align 8
  %call = call ptr @_ZNKSt6vectorIN8facebook5velox6memory20ContiguousAllocationESaIS3_EE5beginEv(ptr noundef nonnull align 8 dereferenceable(24) %this1) #21
  %coerce.dive = getelementptr inbounds %"class.__gnu_cxx::__normal_iterator.60", ptr %ref.tmp, i32 0, i32 0
  store ptr %call, ptr %coerce.dive, align 8
  %call3 = call ptr @_ZNKSt6vectorIN8facebook5velox6memory20ContiguousAllocationESaIS3_EE3endEv(ptr noundef nonnull align 8 dereferenceable(24) %this1) #21
  %coerce.dive4 = getelementptr inbounds %"class.__gnu_cxx::__normal_iterator.60", ptr %ref.tmp2, i32 0, i32 0
  store ptr %call3, ptr %coerce.dive4, align 8
  %call5 = call noundef zeroext i1 @_ZN9__gnu_cxxeqIPKN8facebook5velox6memory20ContiguousAllocationESt6vectorIS4_SaIS4_EEEEbRKNS_17__normal_iteratorIT_T0_EESF_(ptr noundef nonnull align 8 dereferenceable(8) %ref.tmp, ptr noundef nonnull align 8 dereferenceable(8) %ref.tmp2) #21
  ret i1 %call5
}

; Function Attrs: mustprogress nounwind uwtable
define linkonce_odr void @_ZN8facebook5velox19HashStringAllocator6HeaderC2Ej(ptr noundef nonnull align 4 dereferenceable(4) %this, i32 noundef %size) unnamed_addr #2 comdat align 2 {
entry:
  %this.addr = alloca ptr, align 8
  %size.addr = alloca i32, align 4
  store ptr %this, ptr %this.addr, align 8
  store i32 %size, ptr %size.addr, align 4
  %this1 = load ptr, ptr %this.addr, align 8
  %data_ = getelementptr inbounds %"class.facebook::velox::HashStringAllocator::Header", ptr %this1, i32 0, i32 0
  %0 = load i32, ptr %size.addr, align 4
  store i32 %0, ptr %data_, align 4
  %1 = load i32, ptr %size.addr, align 4
  %cmp = icmp ule i32 %1, 536870911
  %lnot = xor i1 %cmp, true
  br i1 %lnot, label %if.then, label %if.end

if.then:                                          ; preds = %entry
  call void @llvm.trap()
  br label %if.end

if.end:                                           ; preds = %if.then, %entry
  ret void
}

; Function Attrs: mustprogress uwtable
define linkonce_odr noundef i64 @_ZNK8facebook5velox6memory14AllocationPool9freeBytesEv(ptr noundef nonnull align 8 dereferenceable(96) %this) #0 comdat align 2 {
entry:
  %retval = alloca i64, align 8
  %this.addr = alloca ptr, align 8
  store ptr %this, ptr %this.addr, align 8
  %this1 = load ptr, ptr %this.addr, align 8
  %largeAllocations_ = getelementptr inbounds %"class.facebook::velox::memory::AllocationPool", ptr %this1, i32 0, i32 2
  %call = call noundef zeroext i1 @_ZNKSt6vectorIN8facebook5velox6memory20ContiguousAllocationESaIS3_EE5emptyEv(ptr noundef nonnull align 8 dereferenceable(24) %largeAllocations_) #21
  br i1 %call, label %if.then, label %if.end

if.then:                                          ; preds = %entry
  %call2 = call noundef i64 @_ZNK8facebook5velox6memory14AllocationPool20freeAddressableBytesEv(ptr noundef nonnull align 8 dereferenceable(96) %this1)
  store i64 %call2, ptr %retval, align 8
  br label %return

if.end:                                           ; preds = %entry
  %largeAllocations_3 = getelementptr inbounds %"class.facebook::velox::memory::AllocationPool", ptr %this1, i32 0, i32 2
  %call4 = call noundef nonnull align 8 dereferenceable(32) ptr @_ZNKSt6vectorIN8facebook5velox6memory20ContiguousAllocationESaIS3_EE4backEv(ptr noundef nonnull align 8 dereferenceable(24) %largeAllocations_3) #21
  %call5 = call noundef i64 @_ZNK8facebook5velox6memory20ContiguousAllocation4sizeEv(ptr noundef nonnull align 8 dereferenceable(32) %call4)
  %currentOffset_ = getelementptr inbounds %"class.facebook::velox::memory::AllocationPool", ptr %this1, i32 0, i32 5
  %0 = load i64, ptr %currentOffset_, align 8
  %sub = sub i64 %call5, %0
  store i64 %sub, ptr %retval, align 8
  br label %return

return:                                           ; preds = %if.end, %if.then
  %1 = load i64, ptr %retval, align 8
  ret i64 %1
}

; Function Attrs: mustprogress nounwind uwtable
define linkonce_odr noundef i64 @_ZNK8facebook5velox6memory14AllocationPool17hugePageThresholdEv(ptr noundef nonnull align 8 dereferenceable(96) %this) #2 comdat align 2 {
entry:
  %this.addr = alloca ptr, align 8
  store ptr %this, ptr %this.addr, align 8
  %this1 = load ptr, ptr %this.addr, align 8
  %hugePageThreshold_ = getelementptr inbounds %"class.facebook::velox::memory::AllocationPool", ptr %this1, i32 0, i32 7
  %0 = load i64, ptr %hugePageThreshold_, align 8
  ret i64 %0
}

; Function Attrs: mustprogress nounwind uwtable
define linkonce_odr noundef i64 @_ZNK8facebook5velox6memory14AllocationPool14allocatedBytesEv(ptr noundef nonnull align 8 dereferenceable(96) %this) #2 comdat align 2 {
entry:
  %this.addr = alloca ptr, align 8
  store ptr %this, ptr %this.addr, align 8
  %this1 = load ptr, ptr %this.addr, align 8
  %usedBytes_ = getelementptr inbounds %"class.facebook::velox::memory::AllocationPool", ptr %this1, i32 0, i32 6
  %0 = load i64, ptr %usedBytes_, align 8
  ret i64 %0
}

; Function Attrs: mustprogress uwtable
define void @_ZN8facebook5velox19HashStringAllocator7newSlabEv(ptr noundef nonnull align 8 dereferenceable(37416) %this) #0 align 2 {
entry:
  %this.addr = alloca ptr, align 8
  %kSimdPadding = alloca i32, align 4
  %needed = alloca i64, align 8
  %run = alloca ptr, align 8
  %available = alloca i64, align 8
  store ptr %this, ptr %this.addr, align 8
  %this1 = load ptr, ptr %this.addr, align 8
  store i32 28, ptr %kSimdPadding, align 4
  %pool_ = getelementptr inbounds %"class.facebook::velox::HashStringAllocator", ptr %this1, i32 0, i32 8
  %call = call noundef i64 @_ZNK8facebook5velox6memory14AllocationPool14allocatedBytesEv(ptr noundef nonnull align 8 dereferenceable(96) %pool_)
  %pool_2 = getelementptr inbounds %"class.facebook::velox::HashStringAllocator", ptr %this1, i32 0, i32 8
  %call3 = call noundef i64 @_ZNK8facebook5velox6memory14AllocationPool17hugePageThresholdEv(ptr noundef nonnull align 8 dereferenceable(96) %pool_2)
  %cmp = icmp sge i64 %call, %call3
  %cond = select i1 %cmp, i64 2097152, i64 65536
  store i64 %cond, ptr %needed, align 8
  %pool_4 = getelementptr inbounds %"class.facebook::velox::HashStringAllocator", ptr %this1, i32 0, i32 8
  %0 = load i64, ptr %needed, align 8
  %call5 = call noundef ptr @_ZN8facebook5velox6memory14AllocationPool13allocateFixedEmi(ptr noundef nonnull align 8 dereferenceable(96) %pool_4, i64 noundef %0, i32 noundef 1)
  store ptr %call5, ptr %run, align 8
  %pool_6 = getelementptr inbounds %"class.facebook::velox::HashStringAllocator", ptr %this1, i32 0, i32 8
  %call7 = call noundef i64 @_ZNK8facebook5velox6memory14AllocationPool9freeBytesEv(ptr noundef nonnull align 8 dereferenceable(96) %pool_6)
  %cmp8 = icmp eq i64 0, %call7
  %lnot = xor i1 %cmp8, true
  br i1 %lnot, label %if.then, label %if.end

if.then:                                          ; preds = %entry
  call void @llvm.trap()
  br label %if.end

if.end:                                           ; preds = %if.then, %entry
  %1 = load i64, ptr %needed, align 8
  %sub = sub i64 %1, 4
  %sub9 = sub i64 %sub, 28
  store i64 %sub9, ptr %available, align 8
  %2 = load ptr, ptr %run, align 8
  %cmp10 = icmp ne ptr %2, null
  %lnot11 = xor i1 %cmp10, true
  br i1 %lnot11, label %if.then12, label %if.end13

if.then12:                                        ; preds = %if.end
  call void @llvm.trap()
  br label %if.end13

if.end13:                                         ; preds = %if.then12, %if.end
  %3 = load i64, ptr %available, align 8
  %cmp14 = icmp ugt i64 %3, 0
  %lnot15 = xor i1 %cmp14, true
  br i1 %lnot15, label %if.then16, label %if.end17

if.then16:                                        ; preds = %if.end13
  call void @llvm.trap()
  br label %if.end17

if.end17:                                         ; preds = %if.then16, %if.end13
  %4 = load ptr, ptr %run, align 8
  %5 = load i64, ptr %available, align 8
  %add.ptr = getelementptr inbounds i8, ptr %4, i64 %5
  store i32 -256988403, ptr %add.ptr, align 4
  %6 = load i64, ptr %available, align 8
  %cumulativeBytes_ = getelementptr inbounds %"class.facebook::velox::HashStringAllocator", ptr %this1, i32 0, i32 5
  %7 = load i64, ptr %cumulativeBytes_, align 8
  %add = add i64 %7, %6
  store i64 %add, ptr %cumulativeBytes_, align 8
  %8 = load ptr, ptr %run, align 8
  %9 = load i64, ptr %available, align 8
  %sub18 = sub i64 %9, 4
  %conv = trunc i64 %sub18 to i32
  call void @_ZN8facebook5velox19HashStringAllocator6HeaderC2Ej(ptr noundef nonnull align 4 dereferenceable(4) %8, i32 noundef %conv)
  call void @_ZN8facebook5velox19HashStringAllocator4freeEPNS1_6HeaderE(ptr noundef nonnull align 8 dereferenceable(37416) %this1, ptr noundef %8)
  ret void
}