; Function Attrs: mustprogress uwtable
define void @_ZN8facebook5velox19HashStringAllocator7newSlabEv(ptr noundef nonnull align 8 dereferenceable(37416) %this) local_unnamed_addr #0 align 2 {
entry:
  %pool_ = getelementptr inbounds i8, ptr %this, i64 37280
  %usedBytes_.i = getelementptr inbounds i8, ptr %this, i64 37360
  %0 = load i64, ptr %usedBytes_.i, align 8
  %hugePageThreshold_.i = getelementptr inbounds i8, ptr %this, i64 37368
  %1 = load i64, ptr %hugePageThreshold_.i, align 8
  %cmp.not = icmp slt i64 %0, %1
  %cond = select i1 %cmp.not, i64 65536, i64 2097152
  %call5 = tail call noundef ptr @_ZN8facebook5velox6memory14AllocationPool13allocateFixedEmi(ptr noundef nonnull align 8 dereferenceable(96) %pool_, i64 noundef %cond, i32 noundef 1)
  %largeAllocations_.i = getelementptr inbounds i8, ptr %this, i64 37312
  %2 = load ptr, ptr %largeAllocations_.i, align 8
  %_M_finish.i.i.i = getelementptr inbounds i8, ptr %this, i64 37320
  %3 = load ptr, ptr %_M_finish.i.i.i, align 8
  %cmp.i.i.i = icmp eq ptr %2, %3
  %currentOffset_.i.i = getelementptr inbounds i8, ptr %this, i64 37352
  %4 = load i64, ptr %currentOffset_.i.i, align 8
  %size_.i.i = getelementptr inbounds i8, ptr %3, i64 -16
  %bytesInRun_.i.i = getelementptr inbounds i8, ptr %this, i64 37344
  %size_.i.sink.i = select i1 %cmp.i.i.i, ptr %bytesInRun_.i.i, ptr %size_.i.i
  %5 = load i64, ptr %size_.i.sink.i, align 8
  %cmp8.not = icmp eq i64 %5, %4
  br i1 %cmp8.not, label %if.end, label %if.then

if.then:                                          ; preds = %entry
  tail call void @llvm.trap()
  unreachable

if.end:                                           ; preds = %entry
  %cmp10.not = icmp eq ptr %call5, null
  br i1 %cmp10.not, label %if.then12, label %if.end17

if.then12:                                        ; preds = %if.end
  tail call void @llvm.trap()
  unreachable

if.end17:                                         ; preds = %if.end
  %sub9 = add nsw i64 %cond, -32
  %add.ptr = getelementptr inbounds i8, ptr %call5, i64 %sub9
  store i32 -256988403, ptr %add.ptr, align 4
  %cumulativeBytes_ = getelementptr inbounds i8, ptr %this, i64 37248
  %6 = load i64, ptr %cumulativeBytes_, align 8
  %add = add i64 %6, %sub9
  store i64 %add, ptr %cumulativeBytes_, align 8
  %7 = trunc i64 %cond to i32
  %conv = add nsw i32 %7, -36
  store i32 %conv, ptr %call5, align 4
  tail call void @_ZN8facebook5velox19HashStringAllocator4freeEPNS1_6HeaderE(ptr noundef nonnull align 8 dereferenceable(37416) %this, ptr noundef nonnull %call5)
  ret void
}